target datalayout = "e-m:e-p270:32:32-p271:32:32-p272:64:64-i64:64-i128:128-f80:128-n8:16:32:64-S128"
target triple = "x86_64-pc-linux-gnu"

@VP8EncQuantizeBlock = hidden global ptr null, align 8

; Function Attrs: nounwind uwtable
define internal i32 @Quantize2Blocks_C(ptr noundef %0, ptr noundef %1, ptr noalias noundef %2) #0 {
  %4 = alloca ptr, align 8
  %5 = alloca ptr, align 8
  %6 = alloca ptr, align 8
  %7 = alloca i32, align 4
  store ptr %0, ptr %4, align 8, !tbaa !20
  store ptr %1, ptr %5, align 8, !tbaa !20
  store ptr %2, ptr %6, align 8, !tbaa !32
  call void @llvm.lifetime.start.p0(i64 4, ptr %7) #8
  %8 = load ptr, ptr @VP8EncQuantizeBlock, align 8, !tbaa !8
  %9 = load ptr, ptr %4, align 8, !tbaa !20
  %10 = getelementptr inbounds i16, ptr %9, i64 0
  %11 = load ptr, ptr %5, align 8, !tbaa !20
  %12 = getelementptr inbounds i16, ptr %11, i64 0
  %13 = load ptr, ptr %6, align 8, !tbaa !32
  %14 = call i32 %8(ptr noundef %10, ptr noundef %12, ptr noundef %13)
  %15 = shl i32 %14, 0
  store i32 %15, ptr %7, align 4, !tbaa !9
  %16 = load ptr, ptr @VP8EncQuantizeBlock, align 8, !tbaa !8
  %17 = load ptr, ptr %4, align 8, !tbaa !20
  %18 = getelementptr inbounds i16, ptr %17, i64 16
  %19 = load ptr, ptr %5, align 8, !tbaa !20
  %20 = getelementptr inbounds i16, ptr %19, i64 16
  %21 = load ptr, ptr %6, align 8, !tbaa !32
  %22 = call i32 %16(ptr noundef %18, ptr noundef %20, ptr noundef %21)
  %23 = shl i32 %22, 1
  %24 = load i32, ptr %7, align 4, !tbaa !9
  %25 = or i32 %24, %23
  store i32 %25, ptr %7, align 4, !tbaa !9
  %26 = load i32, ptr %7, align 4, !tbaa !9
  call void @llvm.lifetime.end.p0(i64 4, ptr %7) #8
  ret i32 %26
}