; Function Attrs: nounwind uwtable
define internal i32 @Quantize2Blocks_C(ptr noundef %0, ptr noundef %1, ptr noalias noundef %2) #2 {
  %4 = load ptr, ptr @VP8EncQuantizeBlock, align 8, !tbaa !12
  %5 = tail call i32 %4(ptr noundef %0, ptr noundef %1, ptr noundef %2) #15
  %6 = load ptr, ptr @VP8EncQuantizeBlock, align 8, !tbaa !12
  %7 = getelementptr inbounds nuw i8, ptr %0, i64 32
  %8 = getelementptr inbounds nuw i8, ptr %1, i64 32
  %9 = tail call i32 %6(ptr noundef nonnull %7, ptr noundef nonnull %8, ptr noundef %2) #15
  %10 = shl i32 %9, 1
  %11 = or i32 %10, %5
  ret i32 %11
}